; Function Attrs: mustprogress uwtable
define hidden void @_ZN12old_intervalC2ER25scoped_dependency_managerIPvERK11ext_numeralbPN18dependency_managerINS2_6configEE10dependencyES6_bSB_(ptr noundef nonnull align 8 dereferenceable(112) initializes((0, 12), (16, 20), (24, 36), (40, 48)) %0, ptr noundef nonnull align 8 dereferenceable(72) %1, ptr noundef nonnull align 8 dereferenceable(40) %2, i1 noundef zeroext %3, ptr noundef %4, ptr noundef nonnull align 8 dereferenceable(40) %5, i1 noundef zeroext %6, ptr noundef %7) unnamed_addr #3 align 2 personality ptr @__gxx_personality_v0 {
  store ptr %1, ptr %0, align 8, !tbaa !30
  %9 = getelementptr inbounds nuw i8, ptr %0, i64 8
  %10 = load i32, ptr %2, align 8, !tbaa !3
  store i32 %10, ptr %9, align 8, !tbaa !3
  %11 = getelementptr inbounds nuw i8, ptr %0, i64 16
  %12 = getelementptr inbounds nuw i8, ptr %2, i64 8
  store i32 0, ptr %11, align 8, !tbaa !16
  %13 = getelementptr inbounds nuw i8, ptr %0, i64 20
  %14 = load i8, ptr %13, align 4
  %15 = and i8 %14, -4
  store i8 %15, ptr %13, align 4
  %16 = getelementptr inbounds nuw i8, ptr %0, i64 24
  store ptr null, ptr %16, align 8, !tbaa !20
  %17 = getelementptr inbounds nuw i8, ptr %0, i64 32
  store i32 1, ptr %17, align 8, !tbaa !16
  %18 = getelementptr inbounds nuw i8, ptr %0, i64 36
  %19 = load i8, ptr %18, align 4
  %20 = and i8 %19, -4
  store i8 %20, ptr %18, align 4
  %21 = getelementptr inbounds nuw i8, ptr %0, i64 40
  store ptr null, ptr %21, align 8, !tbaa !20
  %22 = load ptr, ptr @_ZN8rational13g_mpq_managerE, align 8, !tbaa !14
  %23 = getelementptr inbounds nuw i8, ptr %2, i64 12
  %24 = load i8, ptr %23, align 4
  %25 = and i8 %24, 1
  %26 = icmp eq i8 %25, 0
  br i1 %26, label %27, label %29

27:                                               ; preds = %8
  %28 = load i32, ptr %12, align 8, !tbaa !16
  store i32 %28, ptr %11, align 8, !tbaa !16
  store i8 %15, ptr %13, align 4
  br label %_ZN11mpq_managerILb1EE3setER3mpzRKS1_.exit.i.i.i

29:                                               ; preds = %8
  tail call void @_ZN11mpz_managerILb1EE7big_setER3mpzRKS1_(ptr noundef nonnull align 8 dereferenceable(728) %22, ptr noundef nonnull align 8 dereferenceable(32) %11, ptr noundef nonnull align 8 dereferenceable(32) %12)
  br label %_ZN11mpq_managerILb1EE3setER3mpzRKS1_.exit.i.i.i

_ZN11mpq_managerILb1EE3setER3mpzRKS1_.exit.i.i.i: ; preds = %29, %27
  %30 = getelementptr inbounds nuw i8, ptr %2, i64 24
  %31 = getelementptr inbounds nuw i8, ptr %2, i64 28
  %32 = load i8, ptr %31, align 4
  %33 = and i8 %32, 1
  %34 = icmp eq i8 %33, 0
  br i1 %34, label %35, label %39

35:                                               ; preds = %_ZN11mpq_managerILb1EE3setER3mpzRKS1_.exit.i.i.i
  %36 = load i32, ptr %30, align 8, !tbaa !16
  store i32 %36, ptr %17, align 8, !tbaa !16
  %37 = load i8, ptr %18, align 4
  %38 = and i8 %37, -2
  store i8 %38, ptr %18, align 4
  br label %_ZN11ext_numeralC2ERKS_.exit

39:                                               ; preds = %_ZN11mpq_managerILb1EE3setER3mpzRKS1_.exit.i.i.i
  tail call void @_ZN11mpz_managerILb1EE7big_setER3mpzRKS1_(ptr noundef nonnull align 8 dereferenceable(728) %22, ptr noundef nonnull align 8 dereferenceable(16) %17, ptr noundef nonnull align 8 dereferenceable(16) %30)
  br label %_ZN11ext_numeralC2ERKS_.exit

_ZN11ext_numeralC2ERKS_.exit:                     ; preds = %35, %39
  %40 = getelementptr inbounds nuw i8, ptr %0, i64 48
  %41 = load i32, ptr %5, align 8, !tbaa !3
  store i32 %41, ptr %40, align 8, !tbaa !3
  %42 = getelementptr inbounds nuw i8, ptr %0, i64 56
  %43 = getelementptr inbounds nuw i8, ptr %5, i64 8
  store i32 0, ptr %42, align 8, !tbaa !16
  %44 = getelementptr inbounds nuw i8, ptr %0, i64 60
  %45 = load i8, ptr %44, align 4
  %46 = and i8 %45, -4
  store i8 %46, ptr %44, align 4
  %47 = getelementptr inbounds nuw i8, ptr %0, i64 64
  store ptr null, ptr %47, align 8, !tbaa !20
  %48 = getelementptr inbounds nuw i8, ptr %0, i64 72
  store i32 1, ptr %48, align 8, !tbaa !16
  %49 = getelementptr inbounds nuw i8, ptr %0, i64 76
  %50 = load i8, ptr %49, align 4
  %51 = and i8 %50, -4
  store i8 %51, ptr %49, align 4
  %52 = getelementptr inbounds nuw i8, ptr %0, i64 80
  store ptr null, ptr %52, align 8, !tbaa !20
  %53 = load ptr, ptr @_ZN8rational13g_mpq_managerE, align 8, !tbaa !14
  %54 = getelementptr inbounds nuw i8, ptr %5, i64 12
  %55 = load i8, ptr %54, align 4
  %56 = and i8 %55, 1
  %57 = icmp eq i8 %56, 0
  br i1 %57, label %58, label %60

58:                                               ; preds = %_ZN11ext_numeralC2ERKS_.exit
  %59 = load i32, ptr %43, align 8, !tbaa !16
  store i32 %59, ptr %42, align 8, !tbaa !16
  store i8 %46, ptr %44, align 4
  br label %_ZN11mpq_managerILb1EE3setER3mpzRKS1_.exit.i.i.i9

60:                                               ; preds = %_ZN11ext_numeralC2ERKS_.exit
  invoke void @_ZN11mpz_managerILb1EE7big_setER3mpzRKS1_(ptr noundef nonnull align 8 dereferenceable(728) %53, ptr noundef nonnull align 8 dereferenceable(32) %42, ptr noundef nonnull align 8 dereferenceable(32) %43)
          to label %_ZN11mpq_managerILb1EE3setER3mpzRKS1_.exit.i.i.i9 unwind label %77

_ZN11mpq_managerILb1EE3setER3mpzRKS1_.exit.i.i.i9: ; preds = %60, %58
  %61 = getelementptr inbounds nuw i8, ptr %5, i64 24
  %62 = getelementptr inbounds nuw i8, ptr %5, i64 28
  %63 = load i8, ptr %62, align 4
  %64 = and i8 %63, 1
  %65 = icmp eq i8 %64, 0
  br i1 %65, label %66, label %70

66:                                               ; preds = %_ZN11mpq_managerILb1EE3setER3mpzRKS1_.exit.i.i.i9
  %67 = load i32, ptr %61, align 8, !tbaa !16
  store i32 %67, ptr %48, align 8, !tbaa !16
  %68 = load i8, ptr %49, align 4
  %69 = and i8 %68, -2
  store i8 %69, ptr %49, align 4
  br label %_ZN11ext_numeralC2ERKS_.exit11

70:                                               ; preds = %_ZN11mpq_managerILb1EE3setER3mpzRKS1_.exit.i.i.i9
  invoke void @_ZN11mpz_managerILb1EE7big_setER3mpzRKS1_(ptr noundef nonnull align 8 dereferenceable(728) %53, ptr noundef nonnull align 8 dereferenceable(16) %48, ptr noundef nonnull align 8 dereferenceable(16) %61)
          to label %_ZN11ext_numeralC2ERKS_.exit11 unwind label %77

_ZN11ext_numeralC2ERKS_.exit11:                   ; preds = %66, %70
  %71 = zext i1 %6 to i8
  %72 = zext i1 %3 to i8
  %73 = getelementptr inbounds nuw i8, ptr %0, i64 88
  store i8 %72, ptr %73, align 8, !tbaa !32
  %74 = getelementptr inbounds nuw i8, ptr %0, i64 89
  store i8 %71, ptr %74, align 1, !tbaa !36
  %75 = getelementptr inbounds nuw i8, ptr %0, i64 96
  store ptr %4, ptr %75, align 8, !tbaa !37
  %76 = getelementptr inbounds nuw i8, ptr %0, i64 104
  store ptr %7, ptr %76, align 8, !tbaa !38
  ret void

77:                                               ; preds = %70, %60
  %78 = landingpad { ptr, i32 }
          cleanup
  tail call void @_ZN11ext_numeralD2Ev(ptr noundef nonnull align 8 dereferenceable(40) %9) #22
  resume { ptr, i32 } %78
}